target datalayout = "e-m:e-p270:32:32-p271:32:32-p272:64:64-i64:64-i128:128-f80:128-n8:16:32:64-S128"
target triple = "x86_64-unknown-linux-gnu"

%struct.MACAddr = type { [6 x i8] }
%struct.of_dpa_flow = type { i32, i32, i32, i32, i64, %struct.of_dpa_flow_key, %struct.of_dpa_flow_key, %struct.of_dpa_flow_action, %struct.anon.13 }
%struct.of_dpa_flow_key = type { i32, i32, i32, %struct.anon, %struct.anon.0, %union.anon, i32 }
%struct.anon = type { i16, %struct.MACAddr, %struct.MACAddr, i16 }
%struct.anon.0 = type { i8, i8, i8, i8 }
%union.anon = type { %struct.anon.6 }
%struct.anon.6 = type { %struct.anon.7, i32, %struct.anon.9, %struct.anon.10 }
%struct.anon.7 = type { %struct.ipv6_addr, %struct.ipv6_addr }
%struct.ipv6_addr = type { %union.anon.8 }
%union.anon.8 = type { [4 x i32] }
%struct.anon.9 = type { i16, i16, i16 }
%struct.anon.10 = type { %struct.ipv6_addr, %struct.MACAddr, %struct.MACAddr }
%struct.of_dpa_flow_action = type { i32, %struct.anon.11, %struct.anon.12 }
%struct.anon.11 = type { i32, i32, i16 }
%struct.anon.12 = type { i16, i32, i8, i16 }
%struct.anon.13 = type { i64, i64, i64, i64, i64 }
%struct.of_dpa_flow_context = type { i32, i32, ptr, i32, %struct.eth_header, %struct.vlan_header, %struct.vlan_header, ptr, %struct.of_dpa_flow_pkt_fields, %struct.of_dpa_flow_action }
%struct.eth_header = type { [6 x i8], [6 x i8], i16 }
%struct.vlan_header = type { i16, i16 }
%struct.of_dpa_flow_pkt_fields = type { i32, ptr, ptr, ptr, ptr, ptr, ptr, ptr }
%struct.iovec = type { ptr, i64 }

@.str.9 = private unnamed_addr constant [46 x i8] c"flow_pkt_insert_vlan packet already has vlan\0A\00", align 1

; Function Attrs: nounwind sspstrong uwtable
define internal i32 @DPRINTF(ptr noundef %fmt, ...) #0 {
entry:
  %fmt.addr = alloca ptr, align 8
  store ptr %fmt, ptr %fmt.addr, align 8
  ret i32 0
}

; Function Attrs: nounwind sspstrong uwtable
define internal void @of_dpa_flow_pkt_insert_vlan(ptr noundef %fc, i16 noundef zeroext %vlan_id) #0 {
entry:
  %fc.addr = alloca ptr, align 8
  %vlan_id.addr = alloca i16, align 2
  %fields = alloca ptr, align 8
  %h_proto = alloca i16, align 2
  store ptr %fc, ptr %fc.addr, align 8
  store i16 %vlan_id, ptr %vlan_id.addr, align 2
  %0 = load ptr, ptr %fc.addr, align 8
  %fields1 = getelementptr inbounds %struct.of_dpa_flow_context, ptr %0, i32 0, i32 8
  store ptr %fields1, ptr %fields, align 8
  %1 = load ptr, ptr %fields, align 8
  %ethhdr = getelementptr inbounds %struct.of_dpa_flow_pkt_fields, ptr %1, i32 0, i32 1
  %2 = load ptr, ptr %ethhdr, align 8
  %h_proto2 = getelementptr inbounds %struct.eth_header, ptr %2, i32 0, i32 2
  %3 = load i16, ptr %h_proto2, align 2
  store i16 %3, ptr %h_proto, align 2
  %4 = load ptr, ptr %fields, align 8
  %vlanhdr = getelementptr inbounds %struct.of_dpa_flow_pkt_fields, ptr %4, i32 0, i32 3
  %5 = load ptr, ptr %vlanhdr, align 8
  %tobool = icmp ne ptr %5, null
  br i1 %tobool, label %if.then, label %if.end

if.then:                                          ; preds = %entry
  %call = call i32 (ptr, ...) @DPRINTF(ptr noundef @.str.9)
  br label %return

if.end:                                           ; preds = %entry
  %call3 = call zeroext i16 @htons(i16 noundef zeroext -32512) #11
  %6 = load ptr, ptr %fields, align 8
  %ethhdr4 = getelementptr inbounds %struct.of_dpa_flow_pkt_fields, ptr %6, i32 0, i32 1
  %7 = load ptr, ptr %ethhdr4, align 8
  %h_proto5 = getelementptr inbounds %struct.eth_header, ptr %7, i32 0, i32 2
  store i16 %call3, ptr %h_proto5, align 2
  %8 = load ptr, ptr %fc.addr, align 8
  %vlanhdr6 = getelementptr inbounds %struct.of_dpa_flow_context, ptr %8, i32 0, i32 6
  %9 = load ptr, ptr %fields, align 8
  %vlanhdr7 = getelementptr inbounds %struct.of_dpa_flow_pkt_fields, ptr %9, i32 0, i32 3
  store ptr %vlanhdr6, ptr %vlanhdr7, align 8
  %10 = load i16, ptr %vlan_id.addr, align 2
  %11 = load ptr, ptr %fields, align 8
  %vlanhdr8 = getelementptr inbounds %struct.of_dpa_flow_pkt_fields, ptr %11, i32 0, i32 3
  %12 = load ptr, ptr %vlanhdr8, align 8
  %h_tci = getelementptr inbounds %struct.vlan_header, ptr %12, i32 0, i32 0
  store i16 %10, ptr %h_tci, align 2
  %13 = load i16, ptr %h_proto, align 2
  %14 = load ptr, ptr %fields, align 8
  %vlanhdr9 = getelementptr inbounds %struct.of_dpa_flow_pkt_fields, ptr %14, i32 0, i32 3
  %15 = load ptr, ptr %vlanhdr9, align 8
  %h_proto10 = getelementptr inbounds %struct.vlan_header, ptr %15, i32 0, i32 1
  store i16 %13, ptr %h_proto10, align 2
  %16 = load ptr, ptr %fields, align 8
  %vlanhdr11 = getelementptr inbounds %struct.of_dpa_flow_pkt_fields, ptr %16, i32 0, i32 3
  %17 = load ptr, ptr %vlanhdr11, align 8
  %h_proto12 = getelementptr inbounds %struct.vlan_header, ptr %17, i32 0, i32 1
  %18 = load ptr, ptr %fields, align 8
  %h_proto13 = getelementptr inbounds %struct.of_dpa_flow_pkt_fields, ptr %18, i32 0, i32 2
  store ptr %h_proto12, ptr %h_proto13, align 8
  %19 = load ptr, ptr %fields, align 8
  %vlanhdr14 = getelementptr inbounds %struct.of_dpa_flow_pkt_fields, ptr %19, i32 0, i32 3
  %20 = load ptr, ptr %vlanhdr14, align 8
  %21 = load ptr, ptr %fc.addr, align 8
  %iov = getelementptr inbounds %struct.of_dpa_flow_context, ptr %21, i32 0, i32 2
  %22 = load ptr, ptr %iov, align 8
  %arrayidx = getelementptr %struct.iovec, ptr %22, i64 1
  %iov_base = getelementptr inbounds %struct.iovec, ptr %arrayidx, i32 0, i32 0
  store ptr %20, ptr %iov_base, align 8
  %23 = load ptr, ptr %fc.addr, align 8
  %iov15 = getelementptr inbounds %struct.of_dpa_flow_context, ptr %23, i32 0, i32 2
  %24 = load ptr, ptr %iov15, align 8
  %arrayidx16 = getelementptr %struct.iovec, ptr %24, i64 1
  %iov_len = getelementptr inbounds %struct.iovec, ptr %arrayidx16, i32 0, i32 1
  store i64 4, ptr %iov_len, align 8
  br label %return

return:                                           ; preds = %if.end, %if.then
  ret void
}

; Function Attrs: nounwind sspstrong uwtable
define internal void @of_dpa_vlan_insert(ptr noundef %fc, ptr noundef %flow) #0 {
entry:
  %fc.addr = alloca ptr, align 8
  %flow.addr = alloca ptr, align 8
  store ptr %fc, ptr %fc.addr, align 8
  store ptr %flow, ptr %flow.addr, align 8
  %0 = load ptr, ptr %flow.addr, align 8
  %action = getelementptr inbounds %struct.of_dpa_flow, ptr %0, i32 0, i32 7
  %apply = getelementptr inbounds %struct.of_dpa_flow_action, ptr %action, i32 0, i32 2
  %new_vlan_id = getelementptr inbounds %struct.anon.12, ptr %apply, i32 0, i32 0
  %1 = load i16, ptr %new_vlan_id, align 8
  %tobool = icmp ne i16 %1, 0
  br i1 %tobool, label %if.then, label %if.end

if.then:                                          ; preds = %entry
  %2 = load ptr, ptr %fc.addr, align 8
  %3 = load ptr, ptr %flow.addr, align 8
  %action1 = getelementptr inbounds %struct.of_dpa_flow, ptr %3, i32 0, i32 7
  %apply2 = getelementptr inbounds %struct.of_dpa_flow_action, ptr %action1, i32 0, i32 2
  %new_vlan_id3 = getelementptr inbounds %struct.anon.12, ptr %apply2, i32 0, i32 0
  %4 = load i16, ptr %new_vlan_id3, align 8
  call void @of_dpa_flow_pkt_insert_vlan(ptr noundef %2, i16 noundef zeroext %4)
  br label %if.end

if.end:                                           ; preds = %if.then, %entry
  ret void
}