; Function Attrs: mustprogress nofree nosync nounwind sspstrong willreturn memory(readwrite, inaccessiblemem: none) uwtable
define internal void @of_dpa_vlan_insert(ptr noundef %fc, ptr noundef readonly captures(none) %flow) #12 {
entry:
  %apply = getelementptr inbounds nuw i8, ptr %flow, i64 256
  %0 = load i16, ptr %apply, align 8
  %tobool.not = icmp eq i16 %0, 0
  br i1 %tobool.not, label %if.end, label %if.then

if.then:                                          ; preds = %entry
  %vlanhdr.i = getelementptr inbounds nuw i8, ptr %fc, i64 80
  %1 = load ptr, ptr %vlanhdr.i, align 8
  %tobool.not.i = icmp eq ptr %1, null
  br i1 %tobool.not.i, label %if.end.i, label %if.end

if.end.i:                                         ; preds = %if.then
  %ethhdr.i = getelementptr inbounds nuw i8, ptr %fc, i64 64
  %2 = load ptr, ptr %ethhdr.i, align 8
  %h_proto2.i = getelementptr inbounds nuw i8, ptr %2, i64 12
  %3 = load i16, ptr %h_proto2.i, align 2
  %call3.i = tail call zeroext i16 @htons(i16 noundef zeroext -32512) #20
  store i16 %call3.i, ptr %h_proto2.i, align 2
  %vlanhdr6.i = getelementptr inbounds nuw i8, ptr %fc, i64 38
  store ptr %vlanhdr6.i, ptr %vlanhdr.i, align 8
  store i16 %0, ptr %vlanhdr6.i, align 2
  %h_proto10.i = getelementptr inbounds nuw i8, ptr %fc, i64 40
  store i16 %3, ptr %h_proto10.i, align 2
  %h_proto13.i = getelementptr inbounds nuw i8, ptr %fc, i64 72
  store ptr %h_proto10.i, ptr %h_proto13.i, align 8
  %iov.i = getelementptr inbounds nuw i8, ptr %fc, i64 8
  %4 = load ptr, ptr %iov.i, align 8
  %arrayidx.i = getelementptr i8, ptr %4, i64 16
  store ptr %vlanhdr6.i, ptr %arrayidx.i, align 8
  %5 = load ptr, ptr %iov.i, align 8
  %iov_len.i = getelementptr i8, ptr %5, i64 24
  store i64 4, ptr %iov_len.i, align 8
  br label %if.end

if.end:                                           ; preds = %if.end.i, %if.then, %entry
  ret void
}